; Function Attrs: mustprogress uwtable
define void @_ZN7rocksdb18WriteUnpreparedTxn3PutEPNS_18ColumnFamilyHandleERKNS_5SliceES5_b(ptr dead_on_unwind noalias writable sret(%"class.rocksdb::Status") align 8 initializes((0, 6), (8, 16)) %0, ptr noundef nonnull align 8 dereferenceable(848) %1, ptr noundef %2, ptr noundef nonnull align 8 dereferenceable(16) %3, ptr noundef nonnull align 8 dereferenceable(16) %4, i1 noundef zeroext %5) unnamed_addr #4 align 2 personality ptr @__gxx_personality_v0 {
  %7 = alloca ptr, align 8
  %8 = alloca i8, align 1
  %9 = alloca %"class.std::function.485", align 8
  store ptr %2, ptr %7, align 8, !tbaa !327
  %10 = zext i1 %5 to i8
  store i8 %10, ptr %8, align 1, !tbaa !33
  %11 = getelementptr inbounds nuw i8, ptr %9, i64 16
  %12 = getelementptr inbounds nuw i8, ptr %9, i64 24
  %13 = getelementptr inbounds nuw i8, ptr %9, i64 8
  store i64 0, ptr %13, align 8
  %14 = tail call noalias noundef nonnull dereferenceable(40) ptr @_Znwm(i64 noundef 40) #31
  store ptr %1, ptr %14, align 16, !tbaa !329
  %.sroa.5.0..sroa_idx = getelementptr inbounds nuw i8, ptr %14, i64 8
  store ptr %7, ptr %.sroa.5.0..sroa_idx, align 8, !tbaa !331
  %.sroa.6.0..sroa_idx = getelementptr inbounds nuw i8, ptr %14, i64 16
  store ptr %3, ptr %.sroa.6.0..sroa_idx, align 16, !tbaa !333
  %.sroa.7.0..sroa_idx = getelementptr inbounds nuw i8, ptr %14, i64 24
  store ptr %4, ptr %.sroa.7.0..sroa_idx, align 8, !tbaa !333
  %.sroa.8.0..sroa_idx = getelementptr inbounds nuw i8, ptr %14, i64 32
  store ptr %8, ptr %.sroa.8.0..sroa_idx, align 16, !tbaa !334
  store ptr %14, ptr %9, align 8, !tbaa !336
  store ptr @"_ZNSt17_Function_handlerIFN7rocksdb6StatusEvEZNS0_18WriteUnpreparedTxn3PutEPNS0_18ColumnFamilyHandleERKNS0_5SliceES8_bE3$_0E9_M_invokeERKSt9_Any_data", ptr %12, align 8, !tbaa !320
  store ptr @"_ZNSt17_Function_handlerIFN7rocksdb6StatusEvEZNS0_18WriteUnpreparedTxn3PutEPNS0_18ColumnFamilyHandleERKNS0_5SliceES8_bE3$_0E10_M_managerERSt9_Any_dataRKSB_St18_Manager_operation", ptr %11, align 8, !tbaa !316
  invoke void @_ZN7rocksdb18WriteUnpreparedTxn11HandleWriteESt8functionIFNS_6StatusEvEE(ptr dead_on_unwind writable sret(%"class.rocksdb::Status") align 8 %0, ptr noundef nonnull align 8 dereferenceable(848) %1, ptr noundef nonnull %9)
          to label %15 unwind label %22

15:                                               ; preds = %6
  %16 = load ptr, ptr %11, align 8, !tbaa !316
  %.not.i = icmp eq ptr %16, null
  br i1 %.not.i, label %_ZNSt14_Function_baseD2Ev.exit, label %17

17:                                               ; preds = %15
  %18 = invoke noundef zeroext i1 %16(ptr noundef nonnull align 8 dereferenceable(32) %9, ptr noundef nonnull align 8 dereferenceable(32) %9, i32 noundef 3)
          to label %_ZNSt14_Function_baseD2Ev.exit unwind label %19

19:                                               ; preds = %17
  %20 = landingpad { ptr, i32 }
          catch ptr null
  %21 = extractvalue { ptr, i32 } %20, 0
  call void @__clang_call_terminate(ptr %21) #30
  unreachable

_ZNSt14_Function_baseD2Ev.exit:                   ; preds = %15, %17
  ret void

22:                                               ; preds = %6
  %23 = landingpad { ptr, i32 }
          cleanup
  %24 = load ptr, ptr %11, align 8, !tbaa !316
  %.not.i4 = icmp eq ptr %24, null
  br i1 %.not.i4, label %_ZNSt14_Function_baseD2Ev.exit5, label %25

25:                                               ; preds = %22
  %26 = invoke noundef zeroext i1 %24(ptr noundef nonnull align 8 dereferenceable(32) %9, ptr noundef nonnull align 8 dereferenceable(32) %9, i32 noundef 3)
          to label %_ZNSt14_Function_baseD2Ev.exit5 unwind label %27

27:                                               ; preds = %25
  %28 = landingpad { ptr, i32 }
          catch ptr null
  %29 = extractvalue { ptr, i32 } %28, 0
  call void @__clang_call_terminate(ptr %29) #30
  unreachable

_ZNSt14_Function_baseD2Ev.exit5:                  ; preds = %22, %25
  resume { ptr, i32 } %23
}